target datalayout = "e-m:e-p270:32:32-p271:32:32-p272:64:64-i64:64-i128:128-f80:128-n8:16:32:64-S128"
target triple = "x86_64-pc-linux-gnu"

%struct._asn1_ctx_t = type { i32, i32, i8, ptr, ptr, ptr, ptr, ptr, %struct.anon, %struct.anon.3, %struct.anon.4, ptr }
%struct.anon = type { i32, i8, i8, i8, ptr, ptr, i32, i32, ptr, ptr, ptr, %union.anon.0 }
%union.anon.0 = type { %struct.anon.1 }
%struct.anon.1 = type { ptr }
%struct.anon.3 = type { ptr, ptr, ptr }
%struct.anon.4 = type { i32, i8, ptr, i32, i32, ptr, ptr, ptr, %union.anon.5 }
%union.anon.5 = type { %struct.anon.6 }
%struct.anon.6 = type { ptr }
%struct._packet_info = type { ptr, ptr, i32, i32, %struct.nstime_t, %struct.nstime_t, %struct.nstime_t, i8, ptr, ptr, ptr, ptr, %struct._address, %struct._address, %struct._address, %struct._address, %struct._address, %struct._address, i32, ptr, i8, [3 x i8], %struct.anon.8, i32, i32, i32, i32, ptr, i8, ptr, ptr, i16, i16, i32, i32, i16, i32, i32, ptr, ptr, ptr, i8, i8, i16, i16, i16, i32, i16, i16, ptr, ptr, ptr, ptr, ptr, i32, i32 }
%struct.nstime_t = type { i64, i32 }
%struct._address = type { i32, i32, ptr, ptr }
%struct.anon.8 = type { i8, [3 x i8] }
%struct.z3950_atinfo_t = type { i32, i32 }

@proto_z3950 = internal global i32 0, align 4
@.str.2175 = private unnamed_addr constant [6 x i8] c" (%s)\00", align 1
@.str.2176 = private unnamed_addr constant [31 x i8] c"Unknown bib-1 attributeType %d\00", align 1

; Function Attrs: null_pointer_is_valid sspstrong uwtable
define internal i32 @dissect_z3950_T_attributeElement_attributeType(i1 noundef zeroext %0, ptr noundef %1, i32 noundef %2, ptr noundef %3, ptr noundef %4, i32 noundef %5) #0 {
  %7 = alloca i8, align 1
  %8 = alloca ptr, align 8
  %9 = alloca i32, align 4
  %10 = alloca ptr, align 8
  %11 = alloca ptr, align 8
  %12 = alloca i32, align 4
  %13 = alloca i32, align 4
  %14 = alloca ptr, align 8
  %15 = alloca ptr, align 8
  %16 = zext i1 %0 to i8
  store i8 %16, ptr %7, align 1
  store ptr %1, ptr %8, align 8
  store i32 %2, ptr %9, align 4
  store ptr %3, ptr %10, align 8
  store ptr %4, ptr %11, align 8
  store i32 %5, ptr %12, align 4
  call void @llvm.lifetime.start.p0(i64 4, ptr %13) #8
  store i32 0, ptr %13, align 4
  call void @llvm.lifetime.start.p0(i64 8, ptr %14) #8
  %17 = load ptr, ptr %10, align 8
  %18 = getelementptr inbounds nuw %struct._asn1_ctx_t, ptr %17, i32 0, i32 3
  %19 = load ptr, ptr %18, align 8
  store ptr %19, ptr %14, align 8
  call void @llvm.lifetime.start.p0(i64 8, ptr %15) #8
  %20 = load i8, ptr %7, align 1, !range !6, !noundef !7
  %21 = trunc i8 %20 to i1
  %22 = load ptr, ptr %10, align 8
  %23 = load ptr, ptr %11, align 8
  %24 = load ptr, ptr %8, align 8
  %25 = load i32, ptr %9, align 4
  %26 = load i32, ptr %12, align 4
  %27 = call i32 @dissect_ber_integer(i1 noundef zeroext %21, ptr noundef %22, ptr noundef %23, ptr noundef %24, i32 noundef %25, i32 noundef %26, ptr noundef %13)
  store i32 %27, ptr %9, align 4
  %28 = load ptr, ptr %14, align 8
  %29 = getelementptr inbounds nuw %struct._packet_info, ptr %28, i32 0, i32 51
  %30 = load ptr, ptr %29, align 8
  %31 = load ptr, ptr %14, align 8
  %32 = load i32, ptr @proto_z3950, align 4
  %33 = call ptr @p_get_proto_data(ptr noundef %30, ptr noundef %31, i32 noundef %32, i32 noundef 1)
  store ptr %33, ptr %15, align 8
  %34 = load ptr, ptr %15, align 8
  %35 = icmp ne ptr %34, null
  br i1 %35, label %36, label %50

36:                                               ; preds = %6
  %37 = load ptr, ptr %15, align 8
  %38 = getelementptr inbounds nuw %struct.z3950_atinfo_t, ptr %37, i32 0, i32 0
  %39 = load i32, ptr %38, align 4
  %40 = icmp eq i32 %39, 1
  br i1 %40, label %41, label %50

41:                                               ; preds = %36
  %42 = load ptr, ptr %10, align 8
  %43 = getelementptr inbounds nuw %struct._asn1_ctx_t, ptr %42, i32 0, i32 4
  %44 = load ptr, ptr %43, align 8
  %45 = load i32, ptr %13, align 4
  %46 = call ptr @val_to_str(i32 noundef %45, ptr noundef @z3950_bib1_att_types, ptr noundef @.str.2176)
  call void (ptr, ptr, ...) @proto_item_append_text(ptr noundef %44, ptr noundef @.str.2175, ptr noundef %46)
  %47 = load i32, ptr %13, align 4
  %48 = load ptr, ptr %15, align 8
  %49 = getelementptr inbounds nuw %struct.z3950_atinfo_t, ptr %48, i32 0, i32 1
  store i32 %47, ptr %49, align 4
  br label %50

50:                                               ; preds = %41, %36, %6
  %51 = load i32, ptr %9, align 4
  call void @llvm.lifetime.end.p0(i64 8, ptr %15) #8
  call void @llvm.lifetime.end.p0(i64 8, ptr %14) #8
  call void @llvm.lifetime.end.p0(i64 4, ptr %13) #8
  ret i32 %51
}