; Function Attrs: null_pointer_is_valid sspstrong uwtable
define internal i32 @dissect_z3950_T_attributeElement_attributeType(i1 noundef zeroext %0, ptr noundef %1, i32 noundef %2, ptr noundef %3, ptr noundef %4, i32 noundef %5) #0 {
  %7 = alloca i32, align 4
  call void @llvm.lifetime.start.p0(i64 4, ptr nonnull %7) #9
  store i32 0, ptr %7, align 4
  %8 = getelementptr inbounds nuw i8, ptr %3, i64 16
  %9 = load ptr, ptr %8, align 8
  %10 = call i32 @dissect_ber_integer(i1 noundef zeroext %0, ptr noundef %3, ptr noundef %4, ptr noundef %1, i32 noundef %2, i32 noundef %5, ptr noundef nonnull %7)
  %11 = getelementptr inbounds nuw i8, ptr %9, i64 408
  %12 = load ptr, ptr %11, align 8
  %13 = load i32, ptr @proto_z3950, align 4
  %14 = call ptr @p_get_proto_data(ptr noundef %12, ptr noundef %9, i32 noundef %13, i32 noundef 1)
  %.not = icmp eq ptr %14, null
  br i1 %.not, label %25, label %15

15:                                               ; preds = %6
  %16 = load i32, ptr %14, align 4
  %17 = icmp eq i32 %16, 1
  br i1 %17, label %18, label %25

18:                                               ; preds = %15
  %19 = getelementptr inbounds nuw i8, ptr %3, i64 24
  %20 = load ptr, ptr %19, align 8
  %21 = load i32, ptr %7, align 4
  %22 = call ptr @val_to_str(i32 noundef %21, ptr noundef nonnull @z3950_bib1_att_types, ptr noundef nonnull @.str.2176)
  call void (ptr, ptr, ...) @proto_item_append_text(ptr noundef %20, ptr noundef nonnull @.str.2175, ptr noundef %22)
  %23 = load i32, ptr %7, align 4
  %24 = getelementptr inbounds nuw i8, ptr %14, i64 4
  store i32 %23, ptr %24, align 4
  br label %25

25:                                               ; preds = %18, %15, %6
  call void @llvm.lifetime.end.p0(i64 4, ptr nonnull %7) #9
  ret i32 %10
}